target datalayout = "e-m:e-p270:32:32-p271:32:32-p272:64:64-i64:64-i128:128-f80:128-n8:16:32:64-S128"
target triple = "x86_64-pc-linux-gnu"

@.str.427 = private unnamed_addr constant [48 x i8] c"%s initializes a PostgreSQL database cluster.\0A\0A\00", align 1
@.str.428 = private unnamed_addr constant [8 x i8] c"Usage:\0A\00", align 1
@.str.429 = private unnamed_addr constant [28 x i8] c"  %s [OPTION]... [DATADIR]\0A\00", align 1
@.str.430 = private unnamed_addr constant [11 x i8] c"\0AOptions:\0A\00", align 1
@.str.431 = private unnamed_addr constant [81 x i8] c"  -A, --auth=METHOD         default authentication method for local connections\0A\00", align 1
@.str.432 = private unnamed_addr constant [88 x i8] c"      --auth-host=METHOD    default authentication method for local TCP/IP connections\0A\00", align 1
@.str.433 = private unnamed_addr constant [88 x i8] c"      --auth-local=METHOD   default authentication method for local-socket connections\0A\00", align 1
@.str.434 = private unnamed_addr constant [64 x i8] c" [-D, --pgdata=]DATADIR     location for this database cluster\0A\00", align 1
@.str.435 = private unnamed_addr constant [68 x i8] c"  -E, --encoding=ENCODING   set default encoding for new databases\0A\00", align 1
@.str.436 = private unnamed_addr constant [72 x i8] c"  -g, --allow-group-access  allow group read/execute on data directory\0A\00", align 1
@.str.437 = private unnamed_addr constant [65 x i8] c"      --icu-locale=LOCALE   set ICU locale ID for new databases\0A\00", align 1
@.str.438 = private unnamed_addr constant [82 x i8] c"      --icu-rules=RULES     set additional ICU collation rules for new databases\0A\00", align 1
@.str.439 = private unnamed_addr constant [53 x i8] c"  -k, --data-checksums      use data page checksums\0A\00", align 1
@.str.440 = private unnamed_addr constant [66 x i8] c"      --locale=LOCALE       set default locale for new databases\0A\00", align 1
@.str.442 = private unnamed_addr constant [54 x i8] c"      --no-locale           equivalent to --locale=C\0A\00", align 1
@.str.443 = private unnamed_addr constant [101 x i8] c"      --builtin-locale=LOCALE\0A                            set builtin locale name for new databases\0A\00", align 1
@.str.444 = private unnamed_addr constant [118 x i8] c"      --locale-provider={builtin|libc|icu}\0A                            set default locale provider for new databases\0A\00", align 1
@.str.445 = private unnamed_addr constant [60 x i8] c"      --no-data-checksums   do not use data page checksums\0A\00", align 1
@.str.446 = private unnamed_addr constant [75 x i8] c"      --pwfile=FILE         read password for the new superuser from file\0A\00", align 1
@.str.447 = private unnamed_addr constant [94 x i8] c"  -T, --text-search-config=CFG\0A                            default text search configuration\0A\00", align 1
@.str.448 = private unnamed_addr constant [53 x i8] c"  -U, --username=NAME       database superuser name\0A\00", align 1
@.str.449 = private unnamed_addr constant [73 x i8] c"  -W, --pwprompt            prompt for a password for the new superuser\0A\00", align 1
@.str.450 = private unnamed_addr constant [72 x i8] c"  -X, --waldir=WALDIR       location for the write-ahead log directory\0A\00", align 1
@.str.451 = private unnamed_addr constant [64 x i8] c"      --wal-segsize=SIZE    size of WAL segments, in megabytes\0A\00", align 1
@.str.452 = private unnamed_addr constant [30 x i8] c"\0ALess commonly used options:\0A\00", align 1
@.str.453 = private unnamed_addr constant [75 x i8] c"  -c, --set NAME=VALUE      override default setting for server parameter\0A\00", align 1
@.str.454 = private unnamed_addr constant [63 x i8] c"  -d, --debug               generate lots of debugging output\0A\00", align 1
@.str.455 = private unnamed_addr constant [56 x i8] c"      --discard-caches      set debug_discard_caches=1\0A\00", align 1
@.str.456 = private unnamed_addr constant [59 x i8] c"  -L DIRECTORY              where to find the input files\0A\00", align 1
@.str.457 = private unnamed_addr constant [58 x i8] c"  -n, --no-clean            do not clean up after errors\0A\00", align 1
@.str.458 = private unnamed_addr constant [82 x i8] c"  -N, --no-sync             do not wait for changes to be written safely to disk\0A\00", align 1
@.str.459 = private unnamed_addr constant [70 x i8] c"      --no-instructions     do not print instructions for next steps\0A\00", align 1
@.str.460 = private unnamed_addr constant [63 x i8] c"  -s, --show                show internal settings, then exit\0A\00", align 1
@.str.461 = private unnamed_addr constant [66 x i8] c"      --sync-method=METHOD  set method for syncing files to disk\0A\00", align 1
@.str.462 = private unnamed_addr constant [73 x i8] c"  -S, --sync-only           only sync database files to disk, then exit\0A\00", align 1
@.str.463 = private unnamed_addr constant [17 x i8] c"\0AOther options:\0A\00", align 1
@.str.464 = private unnamed_addr constant [67 x i8] c"  -V, --version             output version information, then exit\0A\00", align 1
@.str.465 = private unnamed_addr constant [55 x i8] c"  -?, --help                show this help, then exit\0A\00", align 1
@.str.466 = private unnamed_addr constant [83 x i8] c"\0AIf the data directory is not specified, the environment variable PGDATA\0Ais used.\0A\00", align 1
@.str.467 = private unnamed_addr constant [23 x i8] c"\0AReport bugs to <%s>.\0A\00", align 1
@.str.468 = private unnamed_addr constant [32 x i8] c"pgsql-bugs@lists.postgresql.org\00", align 1
@.str.469 = private unnamed_addr constant [20 x i8] c"%s home page: <%s>\0A\00", align 1
@.str.470 = private unnamed_addr constant [11 x i8] c"PostgreSQL\00", align 1
@.str.471 = private unnamed_addr constant [28 x i8] c"https://www.postgresql.org/\00", align 1

; Function Attrs: nounwind uwtable
define internal void @usage(ptr noundef %0) #0 {
  %2 = alloca ptr, align 8
  store ptr %0, ptr %2, align 8
  %3 = load ptr, ptr %2, align 8
  %4 = call i32 (ptr, ...) @pg_printf(ptr noundef @.str.427, ptr noundef %3)
  %5 = call i32 (ptr, ...) @pg_printf(ptr noundef @.str.428)
  %6 = load ptr, ptr %2, align 8
  %7 = call i32 (ptr, ...) @pg_printf(ptr noundef @.str.429, ptr noundef %6)
  %8 = call i32 (ptr, ...) @pg_printf(ptr noundef @.str.430)
  %9 = call i32 (ptr, ...) @pg_printf(ptr noundef @.str.431)
  %10 = call i32 (ptr, ...) @pg_printf(ptr noundef @.str.432)
  %11 = call i32 (ptr, ...) @pg_printf(ptr noundef @.str.433)
  %12 = call i32 (ptr, ...) @pg_printf(ptr noundef @.str.434)
  %13 = call i32 (ptr, ...) @pg_printf(ptr noundef @.str.435)
  %14 = call i32 (ptr, ...) @pg_printf(ptr noundef @.str.436)
  %15 = call i32 (ptr, ...) @pg_printf(ptr noundef @.str.437)
  %16 = call i32 (ptr, ...) @pg_printf(ptr noundef @.str.438)
  %17 = call i32 (ptr, ...) @pg_printf(ptr noundef @.str.439)
  %18 = call i32 (ptr, ...) @pg_printf(ptr noundef @.str.440)
  %19 = call i32 (ptr, ...) @pg_printf(ptr noundef @.str.441)
  %20 = call i32 (ptr, ...) @pg_printf(ptr noundef @.str.442)
  %21 = call i32 (ptr, ...) @pg_printf(ptr noundef @.str.443)
  %22 = call i32 (ptr, ...) @pg_printf(ptr noundef @.str.444)
  %23 = call i32 (ptr, ...) @pg_printf(ptr noundef @.str.445)
  %24 = call i32 (ptr, ...) @pg_printf(ptr noundef @.str.446)
  %25 = call i32 (ptr, ...) @pg_printf(ptr noundef @.str.447)
  %26 = call i32 (ptr, ...) @pg_printf(ptr noundef @.str.448)
  %27 = call i32 (ptr, ...) @pg_printf(ptr noundef @.str.449)
  %28 = call i32 (ptr, ...) @pg_printf(ptr noundef @.str.450)
  %29 = call i32 (ptr, ...) @pg_printf(ptr noundef @.str.451)
  %30 = call i32 (ptr, ...) @pg_printf(ptr noundef @.str.452)
  %31 = call i32 (ptr, ...) @pg_printf(ptr noundef @.str.453)
  %32 = call i32 (ptr, ...) @pg_printf(ptr noundef @.str.454)
  %33 = call i32 (ptr, ...) @pg_printf(ptr noundef @.str.455)
  %34 = call i32 (ptr, ...) @pg_printf(ptr noundef @.str.456)
  %35 = call i32 (ptr, ...) @pg_printf(ptr noundef @.str.457)
  %36 = call i32 (ptr, ...) @pg_printf(ptr noundef @.str.458)
  %37 = call i32 (ptr, ...) @pg_printf(ptr noundef @.str.459)
  %38 = call i32 (ptr, ...) @pg_printf(ptr noundef @.str.460)
  %39 = call i32 (ptr, ...) @pg_printf(ptr noundef @.str.461)
  %40 = call i32 (ptr, ...) @pg_printf(ptr noundef @.str.462)
  %41 = call i32 (ptr, ...) @pg_printf(ptr noundef @.str.463)
  %42 = call i32 (ptr, ...) @pg_printf(ptr noundef @.str.464)
  %43 = call i32 (ptr, ...) @pg_printf(ptr noundef @.str.465)
  %44 = call i32 (ptr, ...) @pg_printf(ptr noundef @.str.466)
  %45 = call i32 (ptr, ...) @pg_printf(ptr noundef @.str.467, ptr noundef @.str.468)
  %46 = call i32 (ptr, ...) @pg_printf(ptr noundef @.str.469, ptr noundef @.str.470, ptr noundef @.str.471)
  ret void
}