; Function Attrs: nounwind uwtable
define internal fastcc void @usage(ptr noundef %0) unnamed_addr #0 {
  %2 = tail call i32 (ptr, ...) @pg_printf(ptr noundef nonnull @.str.427, ptr noundef %0) #19
  %3 = tail call i32 (ptr, ...) @pg_printf(ptr noundef nonnull @.str.428) #19
  %4 = tail call i32 (ptr, ...) @pg_printf(ptr noundef nonnull @.str.429, ptr noundef %0) #19
  %5 = tail call i32 (ptr, ...) @pg_printf(ptr noundef nonnull @.str.430) #19
  %6 = tail call i32 (ptr, ...) @pg_printf(ptr noundef nonnull @.str.431) #19
  %7 = tail call i32 (ptr, ...) @pg_printf(ptr noundef nonnull @.str.432) #19
  %8 = tail call i32 (ptr, ...) @pg_printf(ptr noundef nonnull @.str.433) #19
  %9 = tail call i32 (ptr, ...) @pg_printf(ptr noundef nonnull @.str.434) #19
  %10 = tail call i32 (ptr, ...) @pg_printf(ptr noundef nonnull @.str.435) #19
  %11 = tail call i32 (ptr, ...) @pg_printf(ptr noundef nonnull @.str.436) #19
  %12 = tail call i32 (ptr, ...) @pg_printf(ptr noundef nonnull @.str.437) #19
  %13 = tail call i32 (ptr, ...) @pg_printf(ptr noundef nonnull @.str.438) #19
  %14 = tail call i32 (ptr, ...) @pg_printf(ptr noundef nonnull @.str.439) #19
  %15 = tail call i32 (ptr, ...) @pg_printf(ptr noundef nonnull @.str.440) #19
  %16 = tail call i32 (ptr, ...) @pg_printf(ptr noundef nonnull @.str.441) #19
  %17 = tail call i32 (ptr, ...) @pg_printf(ptr noundef nonnull @.str.442) #19
  %18 = tail call i32 (ptr, ...) @pg_printf(ptr noundef nonnull @.str.443) #19
  %19 = tail call i32 (ptr, ...) @pg_printf(ptr noundef nonnull @.str.444) #19
  %20 = tail call i32 (ptr, ...) @pg_printf(ptr noundef nonnull @.str.445) #19
  %21 = tail call i32 (ptr, ...) @pg_printf(ptr noundef nonnull @.str.446) #19
  %22 = tail call i32 (ptr, ...) @pg_printf(ptr noundef nonnull @.str.447) #19
  %23 = tail call i32 (ptr, ...) @pg_printf(ptr noundef nonnull @.str.448) #19
  %24 = tail call i32 (ptr, ...) @pg_printf(ptr noundef nonnull @.str.449) #19
  %25 = tail call i32 (ptr, ...) @pg_printf(ptr noundef nonnull @.str.450) #19
  %26 = tail call i32 (ptr, ...) @pg_printf(ptr noundef nonnull @.str.451) #19
  %27 = tail call i32 (ptr, ...) @pg_printf(ptr noundef nonnull @.str.452) #19
  %28 = tail call i32 (ptr, ...) @pg_printf(ptr noundef nonnull @.str.453) #19
  %29 = tail call i32 (ptr, ...) @pg_printf(ptr noundef nonnull @.str.454) #19
  %30 = tail call i32 (ptr, ...) @pg_printf(ptr noundef nonnull @.str.455) #19
  %31 = tail call i32 (ptr, ...) @pg_printf(ptr noundef nonnull @.str.456) #19
  %32 = tail call i32 (ptr, ...) @pg_printf(ptr noundef nonnull @.str.457) #19
  %33 = tail call i32 (ptr, ...) @pg_printf(ptr noundef nonnull @.str.458) #19
  %34 = tail call i32 (ptr, ...) @pg_printf(ptr noundef nonnull @.str.459) #19
  %35 = tail call i32 (ptr, ...) @pg_printf(ptr noundef nonnull @.str.460) #19
  %36 = tail call i32 (ptr, ...) @pg_printf(ptr noundef nonnull @.str.461) #19
  %37 = tail call i32 (ptr, ...) @pg_printf(ptr noundef nonnull @.str.462) #19
  %38 = tail call i32 (ptr, ...) @pg_printf(ptr noundef nonnull @.str.463) #19
  %39 = tail call i32 (ptr, ...) @pg_printf(ptr noundef nonnull @.str.464) #19
  %40 = tail call i32 (ptr, ...) @pg_printf(ptr noundef nonnull @.str.465) #19
  %41 = tail call i32 (ptr, ...) @pg_printf(ptr noundef nonnull @.str.466) #19
  %42 = tail call i32 (ptr, ...) @pg_printf(ptr noundef nonnull @.str.467, ptr noundef nonnull @.str.468) #19
  %43 = tail call i32 (ptr, ...) @pg_printf(ptr noundef nonnull @.str.469, ptr noundef nonnull @.str.470, ptr noundef nonnull @.str.471) #19
  ret void
}